target datalayout = "e-m:e-p270:32:32-p271:32:32-p272:64:64-i64:64-i128:128-f80:128-n8:16:32:64-S128"
target triple = "x86_64-pc-linux-gnu"

; Function Attrs: nounwind uwtable
define dso_local i32 @credential_has_capability(ptr noundef %0, i32 noundef %1) #0 {
  %3 = alloca i32, align 4
  %4 = alloca ptr, align 8
  %5 = alloca i32, align 4
  store ptr %0, ptr %4, align 8, !tbaa !28
  store i32 %1, ptr %5, align 4, !tbaa !27
  %6 = load i32, ptr %5, align 4, !tbaa !27
  switch i32 %6, label %28 [
    i32 2, label %7
    i32 3, label %12
  ]

7:                                                ; preds = %2
  %8 = load ptr, ptr %4, align 8, !tbaa !28
  %9 = load i8, ptr %8, align 4
  %10 = and i8 %9, 1
  %11 = zext i8 %10 to i32
  store i32 %11, ptr %3, align 4
  br label %29

12:                                               ; preds = %2
  %13 = load ptr, ptr %4, align 8, !tbaa !28
  %14 = load i8, ptr %13, align 4
  %15 = and i8 %14, 1
  %16 = zext i8 %15 to i32
  %17 = icmp ne i32 %16, 0
  br i1 %17, label %18, label %25

18:                                               ; preds = %12
  %19 = load ptr, ptr %4, align 8, !tbaa !28
  %20 = load i8, ptr %19, align 4
  %21 = lshr i8 %20, 1
  %22 = and i8 %21, 1
  %23 = zext i8 %22 to i32
  %24 = icmp ne i32 %23, 0
  br label %25

25:                                               ; preds = %18, %12
  %26 = phi i1 [ false, %12 ], [ %24, %18 ]
  %27 = zext i1 %26 to i32
  store i32 %27, ptr %3, align 4
  br label %29

28:                                               ; preds = %2
  store i32 0, ptr %3, align 4
  br label %29

29:                                               ; preds = %28, %25, %7
  %30 = load i32, ptr %3, align 4
  ret i32 %30
}