; Function Attrs: mustprogress nofree norecurse nosync nounwind willreturn memory(argmem: read) uwtable
define dso_local range(i32 0, 2) i32 @credential_has_capability(ptr noundef readonly captures(none) %0, i32 noundef %1) local_unnamed_addr #11 {
  switch i32 %1, label %10 [
    i32 2, label %3
    i32 3, label %6
  ]

3:                                                ; preds = %2
  %4 = load i8, ptr %0, align 4
  %5 = and i8 %4, 1
  br label %10

6:                                                ; preds = %2
  %7 = load i8, ptr %0, align 4
  %8 = and i8 %7, 1
  %.not = icmp eq i8 %8, 0
  %9 = lshr i8 %7, 1
  %.lobit = and i8 %9, 1
  %narrow = select i1 %.not, i8 0, i8 %.lobit
  br label %10

10:                                               ; preds = %2, %6, %3
  %.0.shrunk = phi i8 [ %narrow, %6 ], [ %5, %3 ], [ 0, %2 ]
  %.0 = zext nneg i8 %.0.shrunk to i32
  ret i32 %.0
}